target datalayout = "e-m:e-p270:32:32-p271:32:32-p272:64:64-i64:64-i128:128-f80:128-n8:16:32:64-S128"
target triple = "x86_64-pc-linux-gnu"

%struct.anon = type { double, double, double, double, double }

; Function Attrs: nounwind uwtable
define internal i32 @f(double noundef %0, ptr noundef %1, ptr noundef %2, ptr noundef %3) #0 {
  %5 = alloca double, align 8
  %6 = alloca ptr, align 8
  %7 = alloca ptr, align 8
  %8 = alloca ptr, align 8
  %9 = alloca double, align 8
  %10 = alloca double, align 8
  %11 = alloca double, align 8
  %12 = alloca double, align 8
  %13 = alloca double, align 8
  %14 = alloca double, align 8
  %15 = alloca double, align 8
  %16 = alloca double, align 8
  %17 = alloca double, align 8
  %18 = alloca double, align 8
  %19 = alloca double, align 8
  %20 = alloca ptr, align 8
  %21 = alloca ptr, align 8
  %22 = alloca i32, align 4
  %23 = alloca i32, align 4
  %24 = alloca ptr, align 8
  store double %0, ptr %5, align 8, !tbaa !21
  store ptr %1, ptr %6, align 8, !tbaa !12
  store ptr %2, ptr %7, align 8, !tbaa !12
  store ptr %3, ptr %8, align 8, !tbaa !11
  call void @llvm.lifetime.start.p0(i64 8, ptr %9) #6
  call void @llvm.lifetime.start.p0(i64 8, ptr %10) #6
  call void @llvm.lifetime.start.p0(i64 8, ptr %11) #6
  call void @llvm.lifetime.start.p0(i64 8, ptr %12) #6
  call void @llvm.lifetime.start.p0(i64 8, ptr %13) #6
  call void @llvm.lifetime.start.p0(i64 8, ptr %14) #6
  call void @llvm.lifetime.start.p0(i64 8, ptr %15) #6
  call void @llvm.lifetime.start.p0(i64 8, ptr %16) #6
  call void @llvm.lifetime.start.p0(i64 8, ptr %17) #6
  call void @llvm.lifetime.start.p0(i64 8, ptr %18) #6
  call void @llvm.lifetime.start.p0(i64 8, ptr %19) #6
  call void @llvm.lifetime.start.p0(i64 8, ptr %20) #6
  call void @llvm.lifetime.start.p0(i64 8, ptr %21) #6
  call void @llvm.lifetime.start.p0(i64 4, ptr %22) #6
  call void @llvm.lifetime.start.p0(i64 4, ptr %23) #6
  call void @llvm.lifetime.start.p0(i64 8, ptr %24) #6
  %25 = load ptr, ptr %6, align 8, !tbaa !12
  %26 = call ptr @N_VGetArrayPointer(ptr noundef %25)
  store ptr %26, ptr %20, align 8, !tbaa !34
  %27 = load ptr, ptr %7, align 8, !tbaa !12
  %28 = call ptr @N_VGetArrayPointer(ptr noundef %27)
  store ptr %28, ptr %21, align 8, !tbaa !34
  %29 = load ptr, ptr %8, align 8, !tbaa !11
  store ptr %29, ptr %24, align 8, !tbaa !11
  %30 = load ptr, ptr %24, align 8, !tbaa !11
  %31 = getelementptr inbounds nuw %struct.anon, ptr %30, i32 0, i32 2
  %32 = load double, ptr %31, align 8, !tbaa !23
  store double %32, ptr %14, align 8, !tbaa !21
  %33 = load ptr, ptr %24, align 8, !tbaa !11
  %34 = getelementptr inbounds nuw %struct.anon, ptr %33, i32 0, i32 3
  %35 = load double, ptr %34, align 8, !tbaa !24
  store double %35, ptr %15, align 8, !tbaa !21
  %36 = load ptr, ptr %24, align 8, !tbaa !11
  %37 = getelementptr inbounds nuw %struct.anon, ptr %36, i32 0, i32 4
  %38 = load double, ptr %37, align 8, !tbaa !25
  store double %38, ptr %16, align 8, !tbaa !21
  store i32 1, ptr %23, align 4, !tbaa !4
  br label %39

39:                                               ; preds = %162, %4
  %40 = load i32, ptr %23, align 4, !tbaa !4
  %41 = icmp sle i32 %40, 20
  br i1 %41, label %42, label %165

42:                                               ; preds = %39
  store i32 1, ptr %22, align 4, !tbaa !4
  br label %43

43:                                               ; preds = %158, %42
  %44 = load i32, ptr %22, align 4, !tbaa !4
  %45 = icmp sle i32 %44, 40
  br i1 %45, label %46, label %161

46:                                               ; preds = %43
  %47 = load ptr, ptr %20, align 8, !tbaa !34
  %48 = load i32, ptr %23, align 4, !tbaa !4
  %49 = sub nsw i32 %48, 1
  %50 = load i32, ptr %22, align 4, !tbaa !4
  %51 = sub nsw i32 %50, 1
  %52 = mul nsw i32 %51, 20
  %53 = add nsw i32 %49, %52
  %54 = sext i32 %53 to i64
  %55 = getelementptr inbounds double, ptr %47, i64 %54
  %56 = load double, ptr %55, align 8, !tbaa !21
  store double %56, ptr %9, align 8, !tbaa !21
  %57 = load i32, ptr %23, align 4, !tbaa !4
  %58 = icmp eq i32 %57, 1
  br i1 %58, label %59, label %60

59:                                               ; preds = %46
  br label %72

60:                                               ; preds = %46
  %61 = load ptr, ptr %20, align 8, !tbaa !34
  %62 = load i32, ptr %23, align 4, !tbaa !4
  %63 = sub nsw i32 %62, 1
  %64 = sub nsw i32 %63, 1
  %65 = load i32, ptr %22, align 4, !tbaa !4
  %66 = sub nsw i32 %65, 1
  %67 = mul nsw i32 %66, 20
  %68 = add nsw i32 %64, %67
  %69 = sext i32 %68 to i64
  %70 = getelementptr inbounds double, ptr %61, i64 %69
  %71 = load double, ptr %70, align 8, !tbaa !21
  br label %72

72:                                               ; preds = %60, %59
  %73 = phi double [ 0.000000e+00, %59 ], [ %71, %60 ]
  store double %73, ptr %10, align 8, !tbaa !21
  %74 = load i32, ptr %23, align 4, !tbaa !4
  %75 = icmp eq i32 %74, 20
  br i1 %75, label %76, label %77

76:                                               ; preds = %72
  br label %89

77:                                               ; preds = %72
  %78 = load ptr, ptr %20, align 8, !tbaa !34
  %79 = load i32, ptr %23, align 4, !tbaa !4
  %80 = add nsw i32 %79, 1
  %81 = sub nsw i32 %80, 1
  %82 = load i32, ptr %22, align 4, !tbaa !4
  %83 = sub nsw i32 %82, 1
  %84 = mul nsw i32 %83, 20
  %85 = add nsw i32 %81, %84
  %86 = sext i32 %85 to i64
  %87 = getelementptr inbounds double, ptr %78, i64 %86
  %88 = load double, ptr %87, align 8, !tbaa !21
  br label %89

89:                                               ; preds = %77, %76
  %90 = phi double [ 0.000000e+00, %76 ], [ %88, %77 ]
  store double %90, ptr %11, align 8, !tbaa !21
  %91 = load i32, ptr %22, align 4, !tbaa !4
  %92 = icmp eq i32 %91, 1
  br i1 %92, label %93, label %94

93:                                               ; preds = %89
  br label %106

94:                                               ; preds = %89
  %95 = load ptr, ptr %20, align 8, !tbaa !34
  %96 = load i32, ptr %23, align 4, !tbaa !4
  %97 = sub nsw i32 %96, 1
  %98 = load i32, ptr %22, align 4, !tbaa !4
  %99 = sub nsw i32 %98, 1
  %100 = sub nsw i32 %99, 1
  %101 = mul nsw i32 %100, 20
  %102 = add nsw i32 %97, %101
  %103 = sext i32 %102 to i64
  %104 = getelementptr inbounds double, ptr %95, i64 %103
  %105 = load double, ptr %104, align 8, !tbaa !21
  br label %106

106:                                              ; preds = %94, %93
  %107 = phi double [ 0.000000e+00, %93 ], [ %105, %94 ]
  store double %107, ptr %12, align 8, !tbaa !21
  %108 = load i32, ptr %22, align 4, !tbaa !4
  %109 = icmp eq i32 %108, 40
  br i1 %109, label %110, label %111

110:                                              ; preds = %106
  br label %123

111:                                              ; preds = %106
  %112 = load ptr, ptr %20, align 8, !tbaa !34
  %113 = load i32, ptr %23, align 4, !tbaa !4
  %114 = sub nsw i32 %113, 1
  %115 = load i32, ptr %22, align 4, !tbaa !4
  %116 = add nsw i32 %115, 1
  %117 = sub nsw i32 %116, 1
  %118 = mul nsw i32 %117, 20
  %119 = add nsw i32 %114, %118
  %120 = sext i32 %119 to i64
  %121 = getelementptr inbounds double, ptr %112, i64 %120
  %122 = load double, ptr %121, align 8, !tbaa !21
  br label %123

123:                                              ; preds = %111, %110
  %124 = phi double [ 0.000000e+00, %110 ], [ %122, %111 ]
  store double %124, ptr %13, align 8, !tbaa !21
  %125 = load double, ptr %14, align 8, !tbaa !21
  %126 = load double, ptr %12, align 8, !tbaa !21
  %127 = load double, ptr %9, align 8, !tbaa !21
  %128 = call double @llvm.fmuladd.f64(double -2.000000e+00, double %127, double %126)
  %129 = load double, ptr %13, align 8, !tbaa !21
  %130 = fadd double %128, %129
  %131 = fmul double %125, %130
  store double %131, ptr %17, align 8, !tbaa !21
  %132 = load double, ptr %15, align 8, !tbaa !21
  %133 = load double, ptr %13, align 8, !tbaa !21
  %134 = load double, ptr %12, align 8, !tbaa !21
  %135 = fsub double %133, %134
  %136 = fmul double %132, %135
  store double %136, ptr %18, align 8, !tbaa !21
  %137 = load double, ptr %16, align 8, !tbaa !21
  %138 = load double, ptr %11, align 8, !tbaa !21
  %139 = load double, ptr %9, align 8, !tbaa !21
  %140 = call double @llvm.fmuladd.f64(double -2.000000e+00, double %139, double %138)
  %141 = load double, ptr %10, align 8, !tbaa !21
  %142 = fadd double %140, %141
  %143 = fmul double %137, %142
  store double %143, ptr %19, align 8, !tbaa !21
  %144 = load double, ptr %17, align 8, !tbaa !21
  %145 = load double, ptr %18, align 8, !tbaa !21
  %146 = fadd double %144, %145
  %147 = load double, ptr %19, align 8, !tbaa !21
  %148 = fadd double %146, %147
  %149 = load ptr, ptr %21, align 8, !tbaa !34
  %150 = load i32, ptr %23, align 4, !tbaa !4
  %151 = sub nsw i32 %150, 1
  %152 = load i32, ptr %22, align 4, !tbaa !4
  %153 = sub nsw i32 %152, 1
  %154 = mul nsw i32 %153, 20
  %155 = add nsw i32 %151, %154
  %156 = sext i32 %155 to i64
  %157 = getelementptr inbounds double, ptr %149, i64 %156
  store double %148, ptr %157, align 8, !tbaa !21
  br label %158

158:                                              ; preds = %123
  %159 = load i32, ptr %22, align 4, !tbaa !4
  %160 = add nsw i32 %159, 1
  store i32 %160, ptr %22, align 4, !tbaa !4
  br label %43

161:                                              ; preds = %43
  br label %162

162:                                              ; preds = %161
  %163 = load i32, ptr %23, align 4, !tbaa !4
  %164 = add nsw i32 %163, 1
  store i32 %164, ptr %23, align 4, !tbaa !4
  br label %39

165:                                              ; preds = %39
  call void @llvm.lifetime.end.p0(i64 8, ptr %24) #6
  call void @llvm.lifetime.end.p0(i64 4, ptr %23) #6
  call void @llvm.lifetime.end.p0(i64 4, ptr %22) #6
  call void @llvm.lifetime.end.p0(i64 8, ptr %21) #6
  call void @llvm.lifetime.end.p0(i64 8, ptr %20) #6
  call void @llvm.lifetime.end.p0(i64 8, ptr %19) #6
  call void @llvm.lifetime.end.p0(i64 8, ptr %18) #6
  call void @llvm.lifetime.end.p0(i64 8, ptr %17) #6
  call void @llvm.lifetime.end.p0(i64 8, ptr %16) #6
  call void @llvm.lifetime.end.p0(i64 8, ptr %15) #6
  call void @llvm.lifetime.end.p0(i64 8, ptr %14) #6
  call void @llvm.lifetime.end.p0(i64 8, ptr %13) #6
  call void @llvm.lifetime.end.p0(i64 8, ptr %12) #6
  call void @llvm.lifetime.end.p0(i64 8, ptr %11) #6
  call void @llvm.lifetime.end.p0(i64 8, ptr %10) #6
  call void @llvm.lifetime.end.p0(i64 8, ptr %9) #6
  ret i32 0
}