; Function Attrs: nounwind uwtable
define internal noundef i32 @f(double %0, ptr noundef %1, ptr noundef %2, ptr noundef readonly captures(none) %3) #0 {
  %5 = tail call ptr @N_VGetArrayPointer(ptr noundef %1) #9
  %6 = tail call ptr @N_VGetArrayPointer(ptr noundef %2) #9
  %7 = getelementptr inbounds nuw i8, ptr %3, i64 16
  %8 = load double, ptr %7, align 8, !tbaa !13
  %9 = getelementptr inbounds nuw i8, ptr %3, i64 24
  %10 = load double, ptr %9, align 8, !tbaa !14
  %11 = getelementptr inbounds nuw i8, ptr %3, i64 32
  %12 = load double, ptr %11, align 8, !tbaa !15
  %invariant.gep75 = getelementptr i8, ptr %5, i64 -16
  br label %.preheader

.preheader:                                       ; preds = %4, %.split.us
  %indvars.iv62 = phi i64 [ 1, %4 ], [ %indvars.iv.next63, %.split.us ]
  %13 = add nsw i64 %indvars.iv62, -1
  %14 = icmp eq i64 %indvars.iv62, 1
  %15 = add nuw nsw i64 %indvars.iv62, -41
  %16 = icmp eq i64 %indvars.iv62, 20
  br i1 %14, label %.preheader.split.us, label %.preheader.split.preheader

.preheader.split.preheader:                       ; preds = %.preheader
  %gep76 = getelementptr double, ptr %invariant.gep75, i64 %indvars.iv62
  %invariant.gep = getelementptr double, ptr %5, i64 %indvars.iv62
  %invariant.gep69 = getelementptr double, ptr %5, i64 %15
  %invariant.gep71 = getelementptr double, ptr %5, i64 %13
  br label %.preheader.split

.preheader.split.us:                              ; preds = %.preheader
  %invariant.gep73 = getelementptr double, ptr %5, i64 %15
  br label %.thread.us

.thread.us:                                       ; preds = %30, %.preheader.split.us
  %indvars.iv56 = phi i64 [ %indvars.iv.next57, %30 ], [ 1, %.preheader.split.us ]
  %17 = mul nuw nsw i64 %indvars.iv56, 20
  %18 = add nsw i64 %17, -20
  %19 = getelementptr inbounds double, ptr %5, i64 %18
  %20 = load double, ptr %19, align 8, !tbaa !20
  %21 = getelementptr double, ptr %5, i64 %17
  %22 = getelementptr i8, ptr %21, i64 -152
  %23 = load double, ptr %22, align 8, !tbaa !20
  %24 = icmp eq i64 %indvars.iv56, 1
  br i1 %24, label %.thread46.us, label %25

25:                                               ; preds = %.thread.us
  %gep74 = getelementptr double, ptr %invariant.gep73, i64 %17
  %26 = load double, ptr %gep74, align 8, !tbaa !20
  %27 = icmp eq i64 %indvars.iv56, 40
  br i1 %27, label %30, label %.thread46.us

.thread46.us:                                     ; preds = %25, %.thread.us
  %28 = phi double [ %26, %25 ], [ 0.000000e+00, %.thread.us ]
  %29 = load double, ptr %21, align 8, !tbaa !20
  br label %30

30:                                               ; preds = %.thread46.us, %25
  %31 = phi double [ %28, %.thread46.us ], [ %26, %25 ]
  %32 = phi double [ %29, %.thread46.us ], [ 0.000000e+00, %25 ]
  %33 = tail call double @llvm.fmuladd.f64(double %20, double -2.000000e+00, double %31)
  %34 = fadd double %33, %32
  %35 = fmul double %8, %34
  %36 = fsub double %32, %31
  %37 = fmul double %10, %36
  %38 = tail call double @llvm.fmuladd.f64(double %20, double -2.000000e+00, double %23)
  %39 = fadd double %38, 0.000000e+00
  %40 = fmul double %12, %39
  %41 = fadd double %35, %37
  %42 = fadd double %40, %41
  %43 = getelementptr inbounds double, ptr %6, i64 %18
  store double %42, ptr %43, align 8, !tbaa !20
  %indvars.iv.next57 = add nuw nsw i64 %indvars.iv56, 1
  %exitcond61.not = icmp eq i64 %indvars.iv.next57, 41
  br i1 %exitcond61.not, label %.split.us, label %.thread.us

.preheader.split:                                 ; preds = %.preheader.split.preheader, %60
  %indvars.iv = phi i64 [ 1, %.preheader.split.preheader ], [ %indvars.iv.next, %60 ]
  %44 = mul nuw nsw i64 %indvars.iv, 20
  %45 = add nsw i64 %44, -20
  %46 = add nuw nsw i64 %45, %13
  %47 = getelementptr inbounds double, ptr %5, i64 %46
  %48 = load double, ptr %47, align 8, !tbaa !20
  %49 = getelementptr double, ptr %gep76, i64 %45
  %50 = load double, ptr %49, align 8, !tbaa !20
  br i1 %16, label %52, label %.thread

.thread:                                          ; preds = %.preheader.split
  %gep = getelementptr double, ptr %invariant.gep, i64 %45
  %51 = load double, ptr %gep, align 8, !tbaa !20
  br label %52

52:                                               ; preds = %.preheader.split, %.thread
  %53 = phi double [ %51, %.thread ], [ 0.000000e+00, %.preheader.split ]
  %54 = icmp eq i64 %indvars.iv, 1
  br i1 %54, label %.thread46, label %55

55:                                               ; preds = %52
  %gep70 = getelementptr double, ptr %invariant.gep69, i64 %44
  %56 = load double, ptr %gep70, align 8, !tbaa !20
  %57 = icmp eq i64 %indvars.iv, 40
  br i1 %57, label %60, label %.thread46

.thread46:                                        ; preds = %52, %55
  %58 = phi double [ %56, %55 ], [ 0.000000e+00, %52 ]
  %gep72 = getelementptr double, ptr %invariant.gep71, i64 %44
  %59 = load double, ptr %gep72, align 8, !tbaa !20
  br label %60

60:                                               ; preds = %55, %.thread46
  %61 = phi double [ %58, %.thread46 ], [ %56, %55 ]
  %62 = phi double [ %59, %.thread46 ], [ 0.000000e+00, %55 ]
  %63 = tail call double @llvm.fmuladd.f64(double %48, double -2.000000e+00, double %61)
  %64 = fadd double %63, %62
  %65 = fmul double %8, %64
  %66 = fsub double %62, %61
  %67 = fmul double %10, %66
  %68 = tail call double @llvm.fmuladd.f64(double %48, double -2.000000e+00, double %53)
  %69 = fadd double %50, %68
  %70 = fmul double %12, %69
  %71 = fadd double %65, %67
  %72 = fadd double %70, %71
  %73 = getelementptr inbounds double, ptr %6, i64 %46
  store double %72, ptr %73, align 8, !tbaa !20
  %indvars.iv.next = add nuw nsw i64 %indvars.iv, 1
  %exitcond.not = icmp eq i64 %indvars.iv.next, 41
  br i1 %exitcond.not, label %.split.us, label %.preheader.split

.split.us:                                        ; preds = %60, %30
  %indvars.iv.next63 = add nuw nsw i64 %indvars.iv62, 1
  %exitcond67.not = icmp eq i64 %indvars.iv.next63, 21
  br i1 %exitcond67.not, label %74, label %.preheader

74:                                               ; preds = %.split.us
  ret i32 0
}